target datalayout = "e-m:e-p270:32:32-p271:32:32-p272:64:64-i64:64-i128:128-f80:128-n8:16:32:64-S128"
target triple = "x86_64-unknown-linux-gnu"

%"class.google::protobuf::Descriptor" = type { %"class.google::protobuf::internal::SymbolBase", i8, i16, i32, ptr, ptr, ptr, ptr, ptr, ptr, ptr, ptr, ptr, ptr, ptr, ptr, ptr, ptr, i32, i32, i32, i32, i32, i32, i32, i32 }
%"class.google::protobuf::internal::SymbolBase" = type { i8 }
%"class.absl::lts_20230802::log_internal::NullStream" = type { i8 }

; Function Attrs: mustprogress nounwind uwtable
define linkonce_odr hidden noundef nonnull align 1 dereferenceable(1) ptr @_ZN4absl12lts_2023080212log_internal10NullStream14InternalStreamEv(ptr noundef nonnull align 1 dereferenceable(1) %this) #5 comdat align 2 {
entry:
  %this.addr = alloca ptr, align 8
  store ptr %this, ptr %this.addr, align 8
  %this1 = load ptr, ptr %this.addr, align 8
  ret ptr %this1
}

; Function Attrs: mustprogress nounwind uwtable
define linkonce_odr hidden noundef ptr @_ZNK6google8protobuf10Descriptor11nested_typeEi(ptr noundef nonnull align 8 dereferenceable(152) %this, i32 noundef %index) #5 comdat align 2 {
entry:
  %this.addr = alloca ptr, align 8
  %index.addr = alloca i32, align 4
  %ref.tmp = alloca %"class.absl::lts_20230802::log_internal::NullStream", align 1
  %ref.tmp4 = alloca %"class.absl::lts_20230802::log_internal::NullStream", align 1
  store ptr %this, ptr %this.addr, align 8
  store i32 %index, ptr %index.addr, align 4
  %this1 = load ptr, ptr %this.addr, align 8
  br label %while.cond

while.cond:                                       ; preds = %while.body, %entry
  br i1 false, label %while.body, label %while.end

while.body:                                       ; preds = %while.cond
  %call = call noundef nonnull align 1 dereferenceable(1) ptr @_ZN4absl12lts_2023080212log_internal10NullStream14InternalStreamEv(ptr noundef nonnull align 1 dereferenceable(1) %ref.tmp)
  br label %while.cond, !llvm.loop !51

while.end:                                        ; preds = %while.cond
  br label %while.cond2

while.cond2:                                      ; preds = %while.body3, %while.end
  br i1 false, label %while.body3, label %while.end6

while.body3:                                      ; preds = %while.cond2
  %call5 = call noundef nonnull align 1 dereferenceable(1) ptr @_ZN4absl12lts_2023080212log_internal10NullStream14InternalStreamEv(ptr noundef nonnull align 1 dereferenceable(1) %ref.tmp4)
  br label %while.cond2, !llvm.loop !52

while.end6:                                       ; preds = %while.cond2
  %nested_types_ = getelementptr inbounds %"class.google::protobuf::Descriptor", ptr %this1, i32 0, i32 12
  %0 = load ptr, ptr %nested_types_, align 8
  %1 = load i32, ptr %index.addr, align 4
  %idx.ext = sext i32 %1 to i64
  %add.ptr = getelementptr inbounds %"class.google::protobuf::Descriptor", ptr %0, i64 %idx.ext
  ret ptr %add.ptr
}

; Function Attrs: mustprogress nounwind uwtable
define linkonce_odr hidden noundef i32 @_ZNK6google8protobuf10Descriptor17nested_type_countEv(ptr noundef nonnull align 8 dereferenceable(152) %this) #5 comdat align 2 {
entry:
  %this.addr = alloca ptr, align 8
  store ptr %this, ptr %this.addr, align 8
  %this1 = load ptr, ptr %this.addr, align 8
  %nested_type_count_ = getelementptr inbounds %"class.google::protobuf::Descriptor", ptr %this1, i32 0, i32 20
  %0 = load i32, ptr %nested_type_count_, align 8
  ret i32 %0
}

; Function Attrs: mustprogress nounwind uwtable
define linkonce_odr hidden noundef i32 @_ZNK6google8protobuf10Descriptor15enum_type_countEv(ptr noundef nonnull align 8 dereferenceable(152) %this) #5 comdat align 2 {
entry:
  %this.addr = alloca ptr, align 8
  store ptr %this, ptr %this.addr, align 8
  %this1 = load ptr, ptr %this.addr, align 8
  %enum_type_count_ = getelementptr inbounds %"class.google::protobuf::Descriptor", ptr %this1, i32 0, i32 21
  %0 = load i32, ptr %enum_type_count_, align 4
  ret i32 %0
}

; Function Attrs: mustprogress uwtable
define internal noundef zeroext i1 @_ZN6google8protobuf8compiler3cppL18HasEnumDefinitionsEPKNS0_10DescriptorE(ptr noundef %message_type) #4 {
entry:
  %retval = alloca i1, align 1
  %message_type.addr = alloca ptr, align 8
  %i = alloca i32, align 4
  store ptr %message_type, ptr %message_type.addr, align 8
  %0 = load ptr, ptr %message_type.addr, align 8
  %call = call noundef i32 @_ZNK6google8protobuf10Descriptor15enum_type_countEv(ptr noundef nonnull align 8 dereferenceable(152) %0)
  %cmp = icmp sgt i32 %call, 0
  br i1 %cmp, label %if.then, label %if.end

if.then:                                          ; preds = %entry
  store i1 true, ptr %retval, align 1
  br label %return

if.end:                                           ; preds = %entry
  store i32 0, ptr %i, align 4
  br label %for.cond

for.cond:                                         ; preds = %for.inc, %if.end
  %1 = load i32, ptr %i, align 4
  %2 = load ptr, ptr %message_type.addr, align 8
  %call1 = call noundef i32 @_ZNK6google8protobuf10Descriptor17nested_type_countEv(ptr noundef nonnull align 8 dereferenceable(152) %2)
  %cmp2 = icmp slt i32 %1, %call1
  br i1 %cmp2, label %for.body, label %for.end

for.body:                                         ; preds = %for.cond
  %3 = load ptr, ptr %message_type.addr, align 8
  %4 = load i32, ptr %i, align 4
  %call3 = call noundef ptr @_ZNK6google8protobuf10Descriptor11nested_typeEi(ptr noundef nonnull align 8 dereferenceable(152) %3, i32 noundef %4)
  %call4 = call noundef zeroext i1 @_ZN6google8protobuf8compiler3cppL18HasEnumDefinitionsEPKNS0_10DescriptorE(ptr noundef %call3)
  br i1 %call4, label %if.then5, label %if.end6

if.then5:                                         ; preds = %for.body
  store i1 true, ptr %retval, align 1
  br label %return

if.end6:                                          ; preds = %for.body
  br label %for.inc

for.inc:                                          ; preds = %if.end6
  %5 = load i32, ptr %i, align 4
  %inc = add nsw i32 %5, 1
  store i32 %inc, ptr %i, align 4
  br label %for.cond, !llvm.loop !32

for.end:                                          ; preds = %for.cond
  store i1 false, ptr %retval, align 1
  br label %return

return:                                           ; preds = %for.end, %if.then5, %if.then
  %6 = load i1, ptr %retval, align 1
  ret i1 %6
}